target datalayout = "e-m:e-p270:32:32-p271:32:32-p272:64:64-i64:64-i128:128-f80:128-n8:16:32:64-S128"
target triple = "x86_64-pc-linux-gnu"

%struct.decContext = type { i32, i32, i32, i32, i32, i32, i8 }

@dec_ctx_key = internal global i32 0, align 4
@stderr = external global ptr, align 8
@dec_ctx_once = internal global i32 0, align 4
@.str.12 = private unnamed_addr constant [41 x i8] c"error: cannot store thread specific data\00", align 1

; Function Attrs: nounwind uwtable
define internal ptr @tsd_dec_ctx_get(ptr noundef %0) #0 {
  %2 = alloca ptr, align 8
  %3 = alloca ptr, align 8
  %4 = alloca ptr, align 8
  %5 = alloca i32, align 4
  %6 = alloca i32, align 4
  %7 = alloca i32, align 4
  %8 = alloca i32, align 4
  store ptr %0, ptr %3, align 8, !tbaa !37
  %9 = call i32 @pthread_once(ptr noundef @dec_ctx_once, ptr noundef @jv_tsd_dec_ctx_init)
  call void @llvm.lifetime.start.p0(i64 8, ptr %4) #11
  %10 = load ptr, ptr %3, align 8, !tbaa !37
  %11 = load i32, ptr %10, align 4, !tbaa !10
  %12 = call ptr @pthread_getspecific(i32 noundef %11) #11
  store ptr %12, ptr %4, align 8, !tbaa !14
  %13 = load ptr, ptr %4, align 8, !tbaa !14
  %14 = icmp ne ptr %13, null
  br i1 %14, label %15, label %17

15:                                               ; preds = %1
  %16 = load ptr, ptr %4, align 8, !tbaa !14
  store ptr %16, ptr %2, align 8
  store i32 1, ptr %5, align 4
  br label %62

17:                                               ; preds = %1
  %18 = call noalias ptr @malloc(i64 noundef 28) #14
  store ptr %18, ptr %4, align 8, !tbaa !14
  %19 = load ptr, ptr %4, align 8, !tbaa !14
  %20 = icmp ne ptr %19, null
  br i1 %20, label %21, label %60

21:                                               ; preds = %17
  %22 = load ptr, ptr %3, align 8, !tbaa !37
  %23 = icmp eq ptr %22, @dec_ctx_key
  br i1 %23, label %24, label %50

24:                                               ; preds = %21
  %25 = load ptr, ptr %4, align 8, !tbaa !14
  %26 = call ptr @decContextDefault(ptr noundef %25, i32 noundef 0)
  call void @llvm.lifetime.start.p0(i64 4, ptr %6) #11
  store i32 999999999, ptr %6, align 4, !tbaa !10
  call void @llvm.lifetime.start.p0(i64 4, ptr %7) #11
  %27 = load ptr, ptr %4, align 8, !tbaa !14
  %28 = getelementptr inbounds nuw %struct.decContext, ptr %27, i32 0, i32 1
  %29 = load i32, ptr %28, align 4, !tbaa !39
  %30 = load ptr, ptr %4, align 8, !tbaa !14
  %31 = getelementptr inbounds nuw %struct.decContext, ptr %30, i32 0, i32 2
  %32 = load i32, ptr %31, align 4, !tbaa !40
  %33 = sub nsw i32 %29, %32
  %34 = sub nsw i32 %33, 1
  %35 = sub nsw i32 2147483645, %34
  store i32 %35, ptr %7, align 4, !tbaa !10
  %36 = load i32, ptr %6, align 4, !tbaa !10
  %37 = load i32, ptr %7, align 4, !tbaa !10
  %38 = icmp slt i32 %36, %37
  br i1 %38, label %39, label %41

39:                                               ; preds = %24
  %40 = load i32, ptr %6, align 4, !tbaa !10
  br label %43

41:                                               ; preds = %24
  %42 = load i32, ptr %7, align 4, !tbaa !10
  br label %43

43:                                               ; preds = %41, %39
  %44 = phi i32 [ %40, %39 ], [ %42, %41 ]
  store i32 %44, ptr %8, align 4, !tbaa !10
  call void @llvm.lifetime.end.p0(i64 4, ptr %7) #11
  call void @llvm.lifetime.end.p0(i64 4, ptr %6) #11
  %45 = load i32, ptr %8, align 4, !tbaa !10
  %46 = load ptr, ptr %4, align 8, !tbaa !14
  %47 = getelementptr inbounds nuw %struct.decContext, ptr %46, i32 0, i32 0
  store i32 %45, ptr %47, align 4, !tbaa !36
  %48 = load ptr, ptr %4, align 8, !tbaa !14
  %49 = getelementptr inbounds nuw %struct.decContext, ptr %48, i32 0, i32 4
  store i32 0, ptr %49, align 4, !tbaa !41
  br label %50

50:                                               ; preds = %43, %21
  %51 = load ptr, ptr %3, align 8, !tbaa !37
  %52 = load i32, ptr %51, align 4, !tbaa !10
  %53 = load ptr, ptr %4, align 8, !tbaa !14
  %54 = call i32 @pthread_setspecific(i32 noundef %52, ptr noundef %53) #11
  %55 = icmp ne i32 %54, 0
  br i1 %55, label %56, label %59

56:                                               ; preds = %50
  %57 = load ptr, ptr @stderr, align 8, !tbaa !20
  %58 = call i32 (ptr, ptr, ...) @fprintf(ptr noundef %57, ptr noundef @.str.12) #11
  call void @abort() #12
  unreachable

59:                                               ; preds = %50
  br label %60

60:                                               ; preds = %59, %17
  %61 = load ptr, ptr %4, align 8, !tbaa !14
  store ptr %61, ptr %2, align 8
  store i32 1, ptr %5, align 4
  br label %62

62:                                               ; preds = %60, %15
  call void @llvm.lifetime.end.p0(i64 8, ptr %4) #11
  %63 = load ptr, ptr %2, align 8
  ret ptr %63
}