; Function Attrs: nounwind uwtable
define internal fastcc ptr @tsd_dec_ctx_get() unnamed_addr #2 {
  %1 = tail call i32 @pthread_once(ptr noundef nonnull @dec_ctx_once, ptr noundef nonnull @jv_tsd_dec_ctx_init) #25
  %2 = load i32, ptr @dec_ctx_key, align 4, !tbaa !4
  %3 = tail call ptr @pthread_getspecific(i32 noundef %2) #25
  %.not = icmp eq ptr %3, null
  br i1 %.not, label %4, label %20

4:                                                ; preds = %0
  %5 = tail call noalias dereferenceable_or_null(28) ptr @malloc(i64 noundef 28) #29
  %.not20 = icmp eq ptr %5, null
  br i1 %.not20, label %20, label %6

6:                                                ; preds = %4
  %7 = tail call ptr @decContextDefault(ptr noundef nonnull %5, i32 noundef 0) #25
  %8 = getelementptr inbounds nuw i8, ptr %5, i64 4
  %9 = load i32, ptr %8, align 4, !tbaa !29
  %10 = getelementptr inbounds nuw i8, ptr %5, i64 8
  %11 = load i32, ptr %10, align 4, !tbaa !30
  %reass.sub = sub i32 %11, %9
  %12 = add i32 %reass.sub, 2147483646
  %13 = tail call i32 @llvm.smin.i32(i32 %12, i32 999999999)
  store i32 %13, ptr %5, align 4, !tbaa !28
  %14 = getelementptr inbounds nuw i8, ptr %5, i64 16
  store i32 0, ptr %14, align 4, !tbaa !31
  %15 = load i32, ptr @dec_ctx_key, align 4, !tbaa !4
  %16 = tail call i32 @pthread_setspecific(i32 noundef %15, ptr noundef nonnull %5) #25
  %.not21 = icmp eq i32 %16, 0
  br i1 %.not21, label %20, label %17

17:                                               ; preds = %6
  %18 = load ptr, ptr @stderr, align 8, !tbaa !20
  %19 = tail call i64 @fwrite(ptr nonnull @.str.12, i64 40, i64 1, ptr %18) #26
  tail call void @abort() #27
  unreachable

20:                                               ; preds = %4, %6, %0
  %.0 = phi ptr [ %3, %0 ], [ %5, %6 ], [ null, %4 ]
  ret ptr %.0
}